; ModuleID = '60/292.c'
source_filename = "60/292.c"
target datalayout = "e-m:e-p270:32:32-p271:32:32-p272:64:64-i64:64-f80:128-n8:16:32:64-S128"
target triple = "x86_64-pc-linux-gnu"

@.str = private unnamed_addr constant [3 x i8] c"%d\00", align 1
@.str.1 = private unnamed_addr constant [7 x i8] c"%d %d\0A\00", align 1
@.str.2 = private unnamed_addr constant [6 x i8] c"empty\00", align 1

; Function Attrs: noinline nounwind uwtable
define dso_local i32 @main() #0 {
  %1 = alloca i32, align 4
  %2 = alloca i32, align 4
  %3 = alloca i32, align 4
  %4 = alloca [30000 x i32], align 16
  %5 = alloca i32, align 4
  %6 = alloca i32, align 4
  %7 = alloca i32, align 4
  store i32 0, i32* %1, align 4
  %8 = call i32 (i8*, ...) @__isoc99_scanf(i8* getelementptr inbounds ([3 x i8], [3 x i8]* @.str, i64 0, i64 0), i32* %2)
  store i32 0, i32* %3, align 4
  br label %9

9:                                                ; preds = %16, %0
  %10 = load i32, i32* %3, align 4
  %11 = icmp slt i32 %10, 30000
  br i1 %11, label %12, label %19

12:                                               ; preds = %9
  %13 = load i32, i32* %3, align 4
  %14 = sext i32 %13 to i64
  %15 = getelementptr inbounds [30000 x i32], [30000 x i32]* %4, i64 0, i64 %14
  store i32 0, i32* %15, align 4
  br label %16

16:                                               ; preds = %12
  %17 = load i32, i32* %3, align 4
  %18 = add nsw i32 %17, 1
  store i32 %18, i32* %3, align 4
  br label %9

19:                                               ; preds = %9
  store i32 0, i32* %5, align 4
  store i32 3, i32* %3, align 4
  br label %20

20:                                               ; preds = %69, %19
  %21 = load i32, i32* %3, align 4
  %22 = load i32, i32* %2, align 4
  %23 = icmp sle i32 %21, %22
  br i1 %23, label %24, label %72

24:                                               ; preds = %20
  store i32 0, i32* %6, align 4
  store i32 2, i32* %7, align 4
  br label %25

25:                                               ; preds = %38, %24
  %26 = load i32, i32* %7, align 4
  %27 = load i32, i32* %3, align 4
  %28 = icmp slt i32 %26, %27
  br i1 %28, label %29, label %41

29:                                               ; preds = %25
  %30 = load i32, i32* %3, align 4
  %31 = load i32, i32* %7, align 4
  %32 = srem i32 %30, %31
  %33 = icmp eq i32 %32, 0
  br i1 %33, label %34, label %37

34:                                               ; preds = %29
  %35 = load i32, i32* %6, align 4
  %36 = add nsw i32 %35, 1
  store i32 %36, i32* %6, align 4
  br label %37

37:                                               ; preds = %34, %29
  br label %38

38:                                               ; preds = %37
  %39 = load i32, i32* %7, align 4
  %40 = add nsw i32 %39, 1
  store i32 %40, i32* %7, align 4
  br label %25

41:                                               ; preds = %25
  %42 = load i32, i32* %6, align 4
  %43 = icmp eq i32 %42, 0
  br i1 %43, label %44, label %49

44:                                               ; preds = %41
  %45 = load i32, i32* %3, align 4
  %46 = load i32, i32* %3, align 4
  %47 = sext i32 %46 to i64
  %48 = getelementptr inbounds [30000 x i32], [30000 x i32]* %4, i64 0, i64 %47
  store i32 %45, i32* %48, align 4
  br label %49

49:                                               ; preds = %44, %41
  %50 = load i32, i32* %3, align 4
  %51 = sext i32 %50 to i64
  %52 = getelementptr inbounds [30000 x i32], [30000 x i32]* %4, i64 0, i64 %51
  %53 = load i32, i32* %52, align 4
  %54 = load i32, i32* %3, align 4
  %55 = sub nsw i32 %54, 2
  %56 = sext i32 %55 to i64
  %57 = getelementptr inbounds [30000 x i32], [30000 x i32]* %4, i64 0, i64 %56
  %58 = load i32, i32* %57, align 4
  %59 = sub nsw i32 %53, %58
  %60 = icmp eq i32 %59, 2
  br i1 %60, label %61, label %68

61:                                               ; preds = %49
  %62 = load i32, i32* %3, align 4
  %63 = sub nsw i32 %62, 2
  %64 = load i32, i32* %3, align 4
  %65 = call i32 (i8*, ...) @printf(i8* getelementptr inbounds ([7 x i8], [7 x i8]* @.str.1, i64 0, i64 0), i32 %63, i32 %64)
  %66 = load i32, i32* %5, align 4
  %67 = add nsw i32 %66, 1
  store i32 %67, i32* %5, align 4
  br label %68

68:                                               ; preds = %61, %49
  br label %69

69:                                               ; preds = %68
  %70 = load i32, i32* %3, align 4
  %71 = add nsw i32 %70, 1
  store i32 %71, i32* %3, align 4
  br label %20

72:                                               ; preds = %20
  %73 = load i32, i32* %5, align 4
  %74 = icmp eq i32 %73, 0
  br i1 %74, label %75, label %77

75:                                               ; preds = %72
  %76 = call i32 (i8*, ...) @printf(i8* getelementptr inbounds ([6 x i8], [6 x i8]* @.str.2, i64 0, i64 0))
  br label %77

77:                                               ; preds = %75, %72
  %78 = load i32, i32* %1, align 4
  ret i32 %78
}

declare dso_local i32 @__isoc99_scanf(i8*, ...) #1

declare dso_local i32 @printf(i8*, ...) #1


!llvm.module.flags = !{!0}
!llvm.ident = !{!1}

!0 = !{i32 1, !"wchar_size", i32 4}
!1 = !{!"clang version 10.0.0-4ubuntu1 "}
